target datalayout = "e-m:e-p270:32:32-p271:32:32-p272:64:64-i64:64-i128:128-f80:128-n8:16:32:64-S128"
target triple = "x86_64-pc-linux-gnu"

%class.QString = type { %struct.QArrayDataPointer }
%struct.QArrayDataPointer = type { ptr, ptr, i64 }
%class.WlanStatisticsDialog = type { %class.TapParameterDialog, i32, i32, ptr, ptr, ptr, %class.QString }
%class.TapParameterDialog = type { %class.WiresharkDialog.base, ptr, %class.QMenu, %class.QList.1, i32, ptr }
%class.WiresharkDialog.base = type <{ %class.GeometryStateDialog, ptr, i8, [7 x i8], %class.QString, %class.QList, i32, i8 }>
%class.GeometryStateDialog = type { %class.QDialog, %class.QString, ptr }
%class.QDialog = type { %class.QWidget }
%class.QWidget = type { %class.QObject, %class.QPaintDevice.base, ptr }
%class.QObject = type { ptr, %class.QScopedPointer }
%class.QScopedPointer = type { ptr }
%class.QPaintDevice.base = type <{ ptr, i16 }>
%class.QList = type { %struct.QArrayDataPointer.0 }
%struct.QArrayDataPointer.0 = type { ptr, ptr, i64 }
%class.QMenu = type { %class.QWidget }
%class.QList.1 = type { %struct.QArrayDataPointer.4 }
%struct.QArrayDataPointer.4 = type { ptr, ptr, i64 }
%class.QList.13 = type { %struct.QArrayDataPointer.16 }
%struct.QArrayDataPointer.16 = type { ptr, ptr, i64 }
%class.QTreeWidgetItem = type <{ ptr, i32, [4 x i8], %class.QList.9, ptr, ptr, ptr, %class.QList.13, %class.QFlags, [4 x i8] }>
%class.QList.9 = type { %struct.QArrayDataPointer.12 }
%struct.QArrayDataPointer.12 = type { ptr, ptr, i64 }
%class.QFlags = type { i32 }

; Function Attrs: inlinehint mustprogress nounwind null_pointer_is_valid sspstrong uwtable
define linkonce_odr noundef i32 @_ZNK15QTreeWidgetItem4typeEv(ptr noundef align 8 dereferenceable_or_null(92) %0) #2 comdat align 2 {
  %2 = alloca ptr, align 8
  store ptr %0, ptr %2, align 8
  %3 = load ptr, ptr %2, align 8
  %4 = getelementptr inbounds nuw %class.QTreeWidgetItem, ptr %3, i32 0, i32 1
  %5 = load i32, ptr %4, align 8
  ret i32 %5
}

; Function Attrs: mustprogress null_pointer_is_valid sspstrong uwtable
define void @_ZN20WlanStatisticsDialog7tapDrawEPv(ptr noundef %0) #4 align 2 {
  %2 = alloca ptr, align 8
  %3 = alloca ptr, align 8
  %4 = alloca i32, align 4
  %5 = alloca i32, align 4
  %6 = alloca ptr, align 8
  %7 = alloca ptr, align 8
  store ptr %0, ptr %2, align 8
  call void @llvm.lifetime.start.p0(i64 8, ptr %3) #3
  %8 = load ptr, ptr %2, align 8
  store ptr %8, ptr %3, align 8
  %9 = load ptr, ptr %3, align 8
  %10 = icmp ne ptr %9, null
  br i1 %10, label %12, label %11

11:                                               ; preds = %1
  store i32 1, ptr %4, align 4
  br label %42

12:                                               ; preds = %1
  call void @llvm.lifetime.start.p0(i64 4, ptr %5) #3
  store i32 0, ptr %5, align 4
  br label %13

13:                                               ; preds = %38, %12
  %14 = load i32, ptr %5, align 4
  %15 = load ptr, ptr %3, align 8
  %16 = call noundef ptr @_ZN18TapParameterDialog15statsTreeWidgetEv(ptr noundef align 8 dereferenceable_or_null(232) %15)
  %17 = call noundef i32 @_ZNK11QTreeWidget17topLevelItemCountEv(ptr noundef align 8 dereferenceable_or_null(40) %16)
  %18 = icmp slt i32 %14, %17
  br i1 %18, label %20, label %19

19:                                               ; preds = %13
  store i32 2, ptr %4, align 4
  call void @llvm.lifetime.end.p0(i64 4, ptr %5) #3
  br label %41

20:                                               ; preds = %13
  call void @llvm.lifetime.start.p0(i64 8, ptr %6) #3
  %21 = load ptr, ptr %3, align 8
  %22 = call noundef ptr @_ZN18TapParameterDialog15statsTreeWidgetEv(ptr noundef align 8 dereferenceable_or_null(232) %21)
  %23 = load i32, ptr %5, align 4
  %24 = call noundef ptr @_ZNK11QTreeWidget12topLevelItemEi(ptr noundef align 8 dereferenceable_or_null(40) %22, i32 noundef %23)
  store ptr %24, ptr %6, align 8
  %25 = load ptr, ptr %6, align 8
  %26 = call noundef i32 @_ZNK15QTreeWidgetItem4typeEv(ptr noundef align 8 dereferenceable_or_null(92) %25)
  %27 = icmp ne i32 %26, 1000
  br i1 %27, label %28, label %29

28:                                               ; preds = %20
  store i32 4, ptr %4, align 4
  br label %35

29:                                               ; preds = %20
  call void @llvm.lifetime.start.p0(i64 8, ptr %7) #3
  %30 = load ptr, ptr %6, align 8
  store ptr %30, ptr %7, align 8
  %31 = load ptr, ptr %7, align 8
  %32 = load ptr, ptr %3, align 8
  %33 = getelementptr inbounds nuw %class.WlanStatisticsDialog, ptr %32, i32 0, i32 1
  %34 = load i32, ptr %33, align 8
  call void @_ZN25WlanNetworkTreeWidgetItem4drawEi(ptr noundef align 8 dereferenceable_or_null(216) %31, i32 noundef %34)
  call void @llvm.lifetime.end.p0(i64 8, ptr %7) #3
  store i32 0, ptr %4, align 4
  br label %35

35:                                               ; preds = %29, %28
  call void @llvm.lifetime.end.p0(i64 8, ptr %6) #3
  %36 = load i32, ptr %4, align 4
  switch i32 %36, label %45 [
    i32 0, label %37
    i32 4, label %38
  ]

37:                                               ; preds = %35
  br label %38

38:                                               ; preds = %37, %35
  %39 = load i32, ptr %5, align 4
  %40 = add i32 %39, 1
  store i32 %40, ptr %5, align 4
  br label %13, !llvm.loop !13

41:                                               ; preds = %19
  store i32 0, ptr %4, align 4
  br label %42

42:                                               ; preds = %41, %11
  call void @llvm.lifetime.end.p0(i64 8, ptr %3) #3
  %43 = load i32, ptr %4, align 4
  switch i32 %43, label %45 [
    i32 0, label %44
    i32 1, label %44
  ]

44:                                               ; preds = %42, %42
  ret void

45:                                               ; preds = %42, %35
  unreachable
}