; Function Attrs: mustprogress null_pointer_is_valid sspstrong uwtable
define void @_ZN20WlanStatisticsDialog7tapDrawEPv(ptr noundef %0) #2 align 2 {
  %.not = icmp eq ptr %0, null
  br i1 %.not, label %.loopexit, label %.preheader

.preheader:                                       ; preds = %1
  %2 = tail call noundef ptr @_ZN18TapParameterDialog15statsTreeWidgetEv(ptr noundef nonnull align 8 dereferenceable_or_null(232) %0)
  %3 = tail call noundef i32 @_ZNK11QTreeWidget17topLevelItemCountEv(ptr noundef align 8 dereferenceable_or_null(40) %2)
  %4 = icmp sgt i32 %3, 0
  br i1 %4, label %.lr.ph, label %.loopexit

.lr.ph:                                           ; preds = %.preheader
  %5 = getelementptr inbounds nuw i8, ptr %0, i64 232
  br label %6

6:                                                ; preds = %.lr.ph, %13
  %.012 = phi i32 [ 0, %.lr.ph ], [ %14, %13 ]
  %7 = tail call noundef ptr @_ZN18TapParameterDialog15statsTreeWidgetEv(ptr noundef nonnull align 8 dereferenceable_or_null(232) %0)
  %8 = tail call noundef ptr @_ZNK11QTreeWidget12topLevelItemEi(ptr noundef align 8 dereferenceable_or_null(40) %7, i32 noundef %.012)
  %9 = getelementptr inbounds nuw i8, ptr %8, i64 8
  %10 = load i32, ptr %9, align 8
  %.not11 = icmp eq i32 %10, 1000
  br i1 %.not11, label %11, label %13

11:                                               ; preds = %6
  %12 = load i32, ptr %5, align 8
  tail call void @_ZN25WlanNetworkTreeWidgetItem4drawEi(ptr noundef align 8 dereferenceable_or_null(216) %8, i32 noundef %12)
  br label %13

13:                                               ; preds = %6, %11
  %14 = add nuw nsw i32 %.012, 1
  %15 = tail call noundef ptr @_ZN18TapParameterDialog15statsTreeWidgetEv(ptr noundef nonnull align 8 dereferenceable_or_null(232) %0)
  %16 = tail call noundef i32 @_ZNK11QTreeWidget17topLevelItemCountEv(ptr noundef align 8 dereferenceable_or_null(40) %15)
  %17 = icmp slt i32 %14, %16
  br i1 %17, label %6, label %.loopexit, !llvm.loop !26

.loopexit:                                        ; preds = %13, %.preheader, %1
  ret void
}